target datalayout = "e-m:e-p270:32:32-p271:32:32-p272:64:64-i64:64-i128:128-f80:128-n8:16:32:64-S128"
target triple = "x86_64-pc-linux-gnu"

; Function Attrs: mustprogress uwtable
define dso_local noundef zeroext i1 @_ZN32cmCTestResourceGroupsLexerHelper11ParseStringERKNSt7__cxx1112basic_stringIcSt11char_traitsIcESaIcEEE(ptr noundef nonnull align 8 dereferenceable(80) %0, ptr noundef nonnull align 8 dereferenceable(32) %1) #5 align 2 {
  %3 = alloca ptr, align 8
  %4 = alloca ptr, align 8
  %5 = alloca ptr, align 8
  %6 = alloca ptr, align 8
  %7 = alloca i32, align 4
  store ptr %0, ptr %3, align 8
  store ptr %1, ptr %4, align 8
  %8 = load ptr, ptr %3, align 8
  %9 = call noundef i32 @_Z38cmCTestResourceGroups_yylex_init_extraP32cmCTestResourceGroupsLexerHelperPPv(ptr noundef %8, ptr noundef %5)
  %10 = load ptr, ptr %4, align 8
  %11 = call noundef ptr @_ZNKSt7__cxx1112basic_stringIcSt11char_traitsIcESaIcEE5c_strEv(ptr noundef nonnull align 8 dereferenceable(32) %10) #3
  %12 = load ptr, ptr %5, align 8
  %13 = call noundef ptr @_Z36cmCTestResourceGroups_yy_scan_stringPKcPv(ptr noundef %11, ptr noundef %12)
  store ptr %13, ptr %6, align 8
  %14 = load ptr, ptr %5, align 8
  %15 = call noundef i32 @_Z27cmCTestResourceGroups_yylexPv(ptr noundef %14)
  store i32 %15, ptr %7, align 4
  %16 = load ptr, ptr %6, align 8
  %17 = load ptr, ptr %5, align 8
  call void @_Z38cmCTestResourceGroups_yy_delete_bufferP15yy_buffer_statePv(ptr noundef %16, ptr noundef %17)
  %18 = load ptr, ptr %5, align 8
  %19 = call noundef i32 @_Z35cmCTestResourceGroups_yylex_destroyPv(ptr noundef %18)
  %20 = load i32, ptr %7, align 4
  %21 = icmp eq i32 %20, 0
  ret i1 %21
}