; Function Attrs: mustprogress uwtable
define dso_local noundef zeroext i1 @_ZN32cmCTestResourceGroupsLexerHelper11ParseStringERKNSt7__cxx1112basic_stringIcSt11char_traitsIcESaIcEEE(ptr noundef nonnull align 8 dereferenceable(80) %0, ptr noundef nonnull align 8 dereferenceable(32) %1) local_unnamed_addr #4 align 2 {
  %3 = alloca ptr, align 8
  %4 = call noundef i32 @_Z38cmCTestResourceGroups_yylex_init_extraP32cmCTestResourceGroupsLexerHelperPPv(ptr noundef nonnull %0, ptr noundef nonnull %3)
  %5 = call noundef ptr @_ZNKSt7__cxx1112basic_stringIcSt11char_traitsIcESaIcEE5c_strEv(ptr noundef nonnull align 8 dereferenceable(32) %1) #16
  %6 = load ptr, ptr %3, align 8
  %7 = call noundef ptr @_Z36cmCTestResourceGroups_yy_scan_stringPKcPv(ptr noundef %5, ptr noundef %6)
  %8 = load ptr, ptr %3, align 8
  %9 = call noundef i32 @_Z27cmCTestResourceGroups_yylexPv(ptr noundef %8)
  %10 = load ptr, ptr %3, align 8
  call void @_Z38cmCTestResourceGroups_yy_delete_bufferP15yy_buffer_statePv(ptr noundef %7, ptr noundef %10)
  %11 = load ptr, ptr %3, align 8
  %12 = call noundef i32 @_Z35cmCTestResourceGroups_yylex_destroyPv(ptr noundef %11)
  %13 = icmp eq i32 %9, 0
  ret i1 %13
}